target datalayout = "e-m:e-p270:32:32-p271:32:32-p272:64:64-i64:64-i128:128-f80:128-n8:16:32:64-S128"
target triple = "x86_64-pc-linux-gnu"

@.str.26 = private unnamed_addr constant [21 x i8] c"help-schizo-base.txt\00", align 1
@.str.254 = private unnamed_addr constant [20 x i8] c"duplicate-mca-value\00", align 1

; Function Attrs: nounwind uwtable
define internal i32 @check_cache_noadd(ptr noundef %0, ptr noundef %1, ptr noundef %2, ptr noundef %3) #0 {
  %5 = alloca i32, align 4
  %6 = alloca ptr, align 8
  %7 = alloca ptr, align 8
  %8 = alloca ptr, align 8
  %9 = alloca ptr, align 8
  %10 = alloca ptr, align 8
  %11 = alloca ptr, align 8
  %12 = alloca i32, align 4
  %13 = alloca i32, align 4
  store ptr %0, ptr %6, align 8, !tbaa !49
  store ptr %1, ptr %7, align 8, !tbaa !49
  store ptr %2, ptr %8, align 8, !tbaa !20
  store ptr %3, ptr %9, align 8, !tbaa !20
  call void @llvm.lifetime.start.p0(i64 8, ptr %10) #11
  call void @llvm.lifetime.start.p0(i64 8, ptr %11) #11
  call void @llvm.lifetime.start.p0(i64 4, ptr %12) #11
  %14 = load ptr, ptr %6, align 8, !tbaa !49
  %15 = icmp eq ptr null, %14
  br i1 %15, label %19, label %16

16:                                               ; preds = %4
  %17 = load ptr, ptr %7, align 8, !tbaa !49
  %18 = icmp eq ptr null, %17
  br i1 %18, label %19, label %20

19:                                               ; preds = %16, %4
  store i32 0, ptr %5, align 4
  store i32 1, ptr %13, align 4
  br label %69

20:                                               ; preds = %16
  %21 = load ptr, ptr %6, align 8, !tbaa !49
  %22 = load ptr, ptr %21, align 8, !tbaa !3
  store ptr %22, ptr %10, align 8, !tbaa !3
  %23 = load ptr, ptr %7, align 8, !tbaa !49
  %24 = load ptr, ptr %23, align 8, !tbaa !3
  store ptr %24, ptr %11, align 8, !tbaa !3
  %25 = load ptr, ptr %10, align 8, !tbaa !3
  %26 = icmp ne ptr null, %25
  br i1 %26, label %27, label %68

27:                                               ; preds = %20
  store i32 0, ptr %12, align 4, !tbaa !13
  br label %28

28:                                               ; preds = %64, %27
  %29 = load ptr, ptr %10, align 8, !tbaa !3
  %30 = load i32, ptr %12, align 4, !tbaa !13
  %31 = sext i32 %30 to i64
  %32 = getelementptr inbounds ptr, ptr %29, i64 %31
  %33 = load ptr, ptr %32, align 8, !tbaa !20
  %34 = icmp ne ptr null, %33
  br i1 %34, label %35, label %67

35:                                               ; preds = %28
  %36 = load ptr, ptr %10, align 8, !tbaa !3
  %37 = load i32, ptr %12, align 4, !tbaa !13
  %38 = sext i32 %37 to i64
  %39 = getelementptr inbounds ptr, ptr %36, i64 %38
  %40 = load ptr, ptr %39, align 8, !tbaa !20
  %41 = load ptr, ptr %8, align 8, !tbaa !20
  %42 = call i32 @strcmp(ptr noundef %40, ptr noundef %41) #13
  %43 = icmp eq i32 0, %42
  br i1 %43, label %44, label %63

44:                                               ; preds = %35
  %45 = load ptr, ptr %11, align 8, !tbaa !3
  %46 = load i32, ptr %12, align 4, !tbaa !13
  %47 = sext i32 %46 to i64
  %48 = getelementptr inbounds ptr, ptr %45, i64 %47
  %49 = load ptr, ptr %48, align 8, !tbaa !20
  %50 = load ptr, ptr %9, align 8, !tbaa !20
  %51 = call i32 @strcmp(ptr noundef %49, ptr noundef %50) #13
  %52 = icmp ne i32 0, %51
  br i1 %52, label %53, label %62

53:                                               ; preds = %44
  %54 = load ptr, ptr %8, align 8, !tbaa !20
  %55 = load ptr, ptr %9, align 8, !tbaa !20
  %56 = load ptr, ptr %11, align 8, !tbaa !3
  %57 = load i32, ptr %12, align 4, !tbaa !13
  %58 = sext i32 %57 to i64
  %59 = getelementptr inbounds ptr, ptr %56, i64 %58
  %60 = load ptr, ptr %59, align 8, !tbaa !20
  %61 = call i32 (ptr, ptr, i32, ...) @pmix_show_help(ptr noundef @.str.26, ptr noundef @.str.254, i32 noundef 1, ptr noundef %54, ptr noundef %55, ptr noundef %60)
  store i32 -5, ptr %5, align 4
  store i32 1, ptr %13, align 4
  br label %69

62:                                               ; preds = %44
  br label %63

63:                                               ; preds = %62, %35
  br label %64

64:                                               ; preds = %63
  %65 = load i32, ptr %12, align 4, !tbaa !13
  %66 = add nsw i32 %65, 1
  store i32 %66, ptr %12, align 4, !tbaa !13
  br label %28, !llvm.loop !116

67:                                               ; preds = %28
  br label %68

68:                                               ; preds = %67, %20
  store i32 0, ptr %5, align 4
  store i32 1, ptr %13, align 4
  br label %69

69:                                               ; preds = %68, %53, %19
  call void @llvm.lifetime.end.p0(i64 4, ptr %12) #11
  call void @llvm.lifetime.end.p0(i64 8, ptr %11) #11
  call void @llvm.lifetime.end.p0(i64 8, ptr %10) #11
  %70 = load i32, ptr %5, align 4
  ret i32 %70
}

; Function Attrs: nounwind uwtable
define internal i32 @check_cache(ptr noundef %0, ptr noundef %1, ptr noundef %2, ptr noundef %3) #0 {
  %5 = alloca ptr, align 8
  %6 = alloca ptr, align 8
  %7 = alloca ptr, align 8
  %8 = alloca ptr, align 8
  %9 = alloca i32, align 4
  store ptr %0, ptr %5, align 8, !tbaa !49
  store ptr %1, ptr %6, align 8, !tbaa !49
  store ptr %2, ptr %7, align 8, !tbaa !20
  store ptr %3, ptr %8, align 8, !tbaa !20
  call void @llvm.lifetime.start.p0(i64 4, ptr %9) #11
  %10 = load ptr, ptr %5, align 8, !tbaa !49
  %11 = load ptr, ptr %6, align 8, !tbaa !49
  %12 = load ptr, ptr %7, align 8, !tbaa !20
  %13 = load ptr, ptr %8, align 8, !tbaa !20
  %14 = call i32 @check_cache_noadd(ptr noundef %10, ptr noundef %11, ptr noundef %12, ptr noundef %13)
  store i32 %14, ptr %9, align 4, !tbaa !13
  %15 = load i32, ptr %9, align 4, !tbaa !13
  %16 = icmp eq i32 0, %15
  br i1 %16, label %17, label %24

17:                                               ; preds = %4
  %18 = load ptr, ptr %5, align 8, !tbaa !49
  %19 = load ptr, ptr %7, align 8, !tbaa !20
  %20 = call i32 @PMIx_Argv_append_nosize(ptr noundef %18, ptr noundef %19)
  %21 = load ptr, ptr %6, align 8, !tbaa !49
  %22 = load ptr, ptr %8, align 8, !tbaa !20
  %23 = call i32 @PMIx_Argv_append_nosize(ptr noundef %21, ptr noundef %22)
  br label %24

24:                                               ; preds = %17, %4
  %25 = load i32, ptr %9, align 4, !tbaa !13
  call void @llvm.lifetime.end.p0(i64 4, ptr %9) #11
  ret i32 %25
}