; Function Attrs: nounwind uwtable
define internal fastcc range(i32 -5, 1) i32 @check_cache(ptr noundef nonnull %0, ptr noundef nonnull %1, ptr noundef %2, ptr noundef %3) unnamed_addr #0 {
  %.val = load ptr, ptr %0, align 8, !tbaa !38
  %.val9 = load ptr, ptr %1, align 8, !tbaa !38
  %.not.i = icmp eq ptr %.val, null
  br i1 %.not.i, label %.loopexit, label %.preheader.i

.preheader.i:                                     ; preds = %4
  %5 = load ptr, ptr %.val, align 8, !tbaa !4
  %.not243.i = icmp eq ptr %5, null
  br i1 %.not243.i, label %.loopexit, label %.lr.ph.i

.lr.ph.i:                                         ; preds = %.preheader.i, %13
  %indvars.iv.i = phi i64 [ %indvars.iv.next.i, %13 ], [ 0, %.preheader.i ]
  %6 = phi ptr [ %15, %13 ], [ %5, %.preheader.i ]
  %7 = tail call i32 @strcmp(ptr noundef nonnull dereferenceable(1) %6, ptr noundef nonnull dereferenceable(1) %2) #20
  %8 = icmp eq i32 %7, 0
  br i1 %8, label %9, label %13

9:                                                ; preds = %.lr.ph.i
  %10 = getelementptr inbounds nuw ptr, ptr %.val9, i64 %indvars.iv.i
  %11 = load ptr, ptr %10, align 8, !tbaa !4
  %12 = tail call i32 @strcmp(ptr noundef nonnull dereferenceable(1) %11, ptr noundef nonnull dereferenceable(1) %3) #20
  %.not25.i = icmp eq i32 %12, 0
  br i1 %.not25.i, label %13, label %check_cache_noadd.exit

13:                                               ; preds = %9, %.lr.ph.i
  %indvars.iv.next.i = add nuw nsw i64 %indvars.iv.i, 1
  %14 = getelementptr inbounds nuw ptr, ptr %.val, i64 %indvars.iv.next.i
  %15 = load ptr, ptr %14, align 8, !tbaa !4
  %.not24.i = icmp eq ptr %15, null
  br i1 %.not24.i, label %.loopexit, label %.lr.ph.i, !llvm.loop !66

check_cache_noadd.exit:                           ; preds = %9
  %16 = tail call i32 (ptr, ptr, i32, ...) @pmix_show_help(ptr noundef nonnull @.str.26, ptr noundef nonnull @.str.254, i32 noundef 1, ptr noundef nonnull %2, ptr noundef nonnull %3, ptr noundef nonnull %11) #18
  br label %19

.loopexit:                                        ; preds = %13, %4, %.preheader.i
  %17 = tail call i32 @PMIx_Argv_append_nosize(ptr noundef nonnull %0, ptr noundef %2) #18
  %18 = tail call i32 @PMIx_Argv_append_nosize(ptr noundef nonnull %1, ptr noundef %3) #18
  br label %19

19:                                               ; preds = %check_cache_noadd.exit, %.loopexit
  %.019.i11 = phi i32 [ 0, %.loopexit ], [ -5, %check_cache_noadd.exit ]
  ret i32 %.019.i11
}